(dp0
S'Nov  7  2016'
p1
(lp2
S"Don't fail physics exm"
p3
aS'OOOPs I failed'
p4
asS'Nov  6  2016'
p5
(lp6
S'STOP PROCRASTINATING '
p7
aS'Study Physics'
p8
aS'do laundry'
p9
asS'Dec 12'
p10
(lp11
S'ahhhh'
p12
as.