(dp0
S''
p1
(lp2
g1
asS'Dec 14'
p3
(lp4
S'asf'
p5
aS'add to list'
p6
asS'Dec 12'
p7
(lp8
S'df'
p9
aS'hello'
p10
asS'Nov  6 2016'
p11
(lp12
S'here'
p13
aS'AGAIN'
p14
asS'Dec 12 2019'
p15
(lp16
S'sdf'
p17
asS'Nov  6  2016'
p18
(lp19
s.